; ModuleID = '29/1818.c'
source_filename = "29/1818.c"
target datalayout = "e-m:e-p270:32:32-p271:32:32-p272:64:64-i64:64-f80:128-n8:16:32:64-S128"
target triple = "x86_64-pc-linux-gnu"

@.str = private unnamed_addr constant [3 x i8] c"%d\00", align 1
@.str.1 = private unnamed_addr constant [6 x i8] c"%.3f\0A\00", align 1

; Function Attrs: noinline nounwind uwtable
define dso_local i32 @main() #0 {
  %1 = alloca i32, align 4
  %2 = alloca [100 x i32], align 16
  %3 = alloca [100 x double], align 16
  %4 = alloca i32, align 4
  %5 = alloca i32, align 4
  %6 = alloca i32, align 4
  %7 = alloca double, align 8
  store i32 0, i32* %1, align 4
  %8 = bitcast [100 x i32]* %2 to i8*
  call void @llvm.memset.p0i8.i64(i8* align 16 %8, i8 0, i64 400, i1 false)
  %9 = bitcast [100 x double]* %3 to i8*
  call void @llvm.memset.p0i8.i64(i8* align 16 %9, i8 0, i64 800, i1 false)
  store double 0.000000e+00, double* %7, align 8
  %10 = call i32 (i8*, ...) @__isoc99_scanf(i8* getelementptr inbounds ([3 x i8], [3 x i8]* @.str, i64 0, i64 0), i32* %4)
  store i32 1, i32* %5, align 4
  br label %11

11:                                               ; preds = %20, %0
  %12 = load i32, i32* %5, align 4
  %13 = load i32, i32* %4, align 4
  %14 = icmp sle i32 %12, %13
  br i1 %14, label %15, label %23

15:                                               ; preds = %11
  %16 = load i32, i32* %5, align 4
  %17 = sext i32 %16 to i64
  %18 = getelementptr inbounds [100 x i32], [100 x i32]* %2, i64 0, i64 %17
  %19 = call i32 (i8*, ...) @__isoc99_scanf(i8* getelementptr inbounds ([3 x i8], [3 x i8]* @.str, i64 0, i64 0), i32* %18)
  br label %20

20:                                               ; preds = %15
  %21 = load i32, i32* %5, align 4
  %22 = add nsw i32 %21, 1
  store i32 %22, i32* %5, align 4
  br label %11

23:                                               ; preds = %11
  %24 = getelementptr inbounds [100 x double], [100 x double]* %3, i64 0, i64 1
  store double 1.000000e+00, double* %24, align 8
  store i32 2, i32* %5, align 4
  br label %25

25:                                               ; preds = %43, %23
  %26 = load i32, i32* %5, align 4
  %27 = icmp sle i32 %26, 99
  br i1 %27, label %28, label %46

28:                                               ; preds = %25
  %29 = load i32, i32* %5, align 4
  %30 = sub nsw i32 %29, 1
  %31 = sext i32 %30 to i64
  %32 = getelementptr inbounds [100 x double], [100 x double]* %3, i64 0, i64 %31
  %33 = load double, double* %32, align 8
  %34 = load i32, i32* %5, align 4
  %35 = sub nsw i32 %34, 2
  %36 = sext i32 %35 to i64
  %37 = getelementptr inbounds [100 x double], [100 x double]* %3, i64 0, i64 %36
  %38 = load double, double* %37, align 8
  %39 = fadd double %33, %38
  %40 = load i32, i32* %5, align 4
  %41 = sext i32 %40 to i64
  %42 = getelementptr inbounds [100 x double], [100 x double]* %3, i64 0, i64 %41
  store double %39, double* %42, align 8
  br label %43

43:                                               ; preds = %28
  %44 = load i32, i32* %5, align 4
  %45 = add nsw i32 %44, 1
  store i32 %45, i32* %5, align 4
  br label %25

46:                                               ; preds = %25
  store i32 1, i32* %5, align 4
  br label %47

47:                                               ; preds = %79, %46
  %48 = load i32, i32* %5, align 4
  %49 = load i32, i32* %4, align 4
  %50 = icmp sle i32 %48, %49
  br i1 %50, label %51, label %82

51:                                               ; preds = %47
  store i32 1, i32* %6, align 4
  br label %52

52:                                               ; preds = %73, %51
  %53 = load i32, i32* %6, align 4
  %54 = load i32, i32* %5, align 4
  %55 = sext i32 %54 to i64
  %56 = getelementptr inbounds [100 x i32], [100 x i32]* %2, i64 0, i64 %55
  %57 = load i32, i32* %56, align 4
  %58 = icmp sle i32 %53, %57
  br i1 %58, label %59, label %76

59:                                               ; preds = %52
  %60 = load double, double* %7, align 8
  %61 = load i32, i32* %6, align 4
  %62 = add nsw i32 %61, 2
  %63 = sext i32 %62 to i64
  %64 = getelementptr inbounds [100 x double], [100 x double]* %3, i64 0, i64 %63
  %65 = load double, double* %64, align 8
  %66 = load i32, i32* %6, align 4
  %67 = add nsw i32 %66, 1
  %68 = sext i32 %67 to i64
  %69 = getelementptr inbounds [100 x double], [100 x double]* %3, i64 0, i64 %68
  %70 = load double, double* %69, align 8
  %71 = fdiv double %65, %70
  %72 = fadd double %60, %71
  store double %72, double* %7, align 8
  br label %73

73:                                               ; preds = %59
  %74 = load i32, i32* %6, align 4
  %75 = add nsw i32 %74, 1
  store i32 %75, i32* %6, align 4
  br label %52

76:                                               ; preds = %52
  %77 = load double, double* %7, align 8
  %78 = call i32 (i8*, ...) @printf(i8* getelementptr inbounds ([6 x i8], [6 x i8]* @.str.1, i64 0, i64 0), double %77)
  store double 0.000000e+00, double* %7, align 8
  br label %79

79:                                               ; preds = %76
  %80 = load i32, i32* %5, align 4
  %81 = add nsw i32 %80, 1
  store i32 %81, i32* %5, align 4
  br label %47

82:                                               ; preds = %47
  ret i32 0
}

; Function Attrs: argmemonly nounwind willreturn
declare void @llvm.memset.p0i8.i64(i8* nocapture writeonly, i8, i64, i1 immarg) #1

declare dso_local i32 @__isoc99_scanf(i8*, ...) #2

declare dso_local i32 @printf(i8*, ...) #2


!llvm.module.flags = !{!0}
!llvm.ident = !{!1}

!0 = !{i32 1, !"wchar_size", i32 4}
!1 = !{!"clang version 10.0.0-4ubuntu1 "}
